target datalayout = "e-m:e-p270:32:32-p271:32:32-p272:64:64-i64:64-i128:128-f80:128-n8:16:32:64-S128"
target triple = "x86_64-pc-linux-gnu"

; Function Attrs: nounwind uwtable
define dso_local ptr @first_path_var_separator(ptr noundef %0) #0 {
  %2 = alloca ptr, align 8
  %3 = alloca ptr, align 8
  %4 = alloca ptr, align 8
  %5 = alloca i32, align 4
  %6 = alloca i32, align 4
  store ptr %0, ptr %3, align 8
  call void @llvm.lifetime.start.p0(i64 8, ptr %4) #10
  %7 = load ptr, ptr %3, align 8
  store ptr %7, ptr %4, align 8
  br label %8

8:                                                ; preds = %23, %1
  %9 = load ptr, ptr %4, align 8
  %10 = load i8, ptr %9, align 1
  %11 = icmp ne i8 %10, 0
  br i1 %11, label %12, label %26

12:                                               ; preds = %8
  %13 = load ptr, ptr %4, align 8
  %14 = load i8, ptr %13, align 1
  %15 = sext i8 %14 to i32
  %16 = icmp eq i32 %15, 58
  br i1 %16, label %17, label %22

17:                                               ; preds = %12
  br label %18

18:                                               ; preds = %17
  br label %19

19:                                               ; preds = %18
  br label %20

20:                                               ; preds = %19
  store i32 1, ptr %5, align 4
  %21 = load ptr, ptr %4, align 8
  store ptr %21, ptr %2, align 8
  store i32 1, ptr %6, align 4
  br label %27

22:                                               ; preds = %12
  br label %23

23:                                               ; preds = %22
  %24 = load ptr, ptr %4, align 8
  %25 = getelementptr inbounds nuw i8, ptr %24, i32 1
  store ptr %25, ptr %4, align 8
  br label %8, !llvm.loop !6

26:                                               ; preds = %8
  store ptr null, ptr %2, align 8
  store i32 1, ptr %6, align 4
  br label %27

27:                                               ; preds = %26, %20
  call void @llvm.lifetime.end.p0(i64 8, ptr %4) #10
  %28 = load ptr, ptr %2, align 8
  ret ptr %28
}